; Function Attrs: null_pointer_is_valid sspstrong uwtable
define internal void @extcap_free_interface(ptr noundef %0) #0 {
  %2 = icmp eq ptr %0, null
  br i1 %2, label %13, label %3

3:                                                ; preds = %1
  %4 = load ptr, ptr %0, align 8
  tail call void @g_free(ptr noundef %4)
  %5 = getelementptr inbounds nuw i8, ptr %0, i64 8
  %6 = load ptr, ptr %5, align 8
  tail call void @g_free(ptr noundef %6)
  %7 = getelementptr inbounds nuw i8, ptr %0, i64 16
  %8 = load ptr, ptr %7, align 8
  tail call void @g_free(ptr noundef %8)
  %9 = getelementptr inbounds nuw i8, ptr %0, i64 24
  %10 = load ptr, ptr %9, align 8
  tail call void @g_free(ptr noundef %10)
  %11 = getelementptr inbounds nuw i8, ptr %0, i64 32
  %12 = load ptr, ptr %11, align 8
  tail call void @g_free(ptr noundef %12)
  tail call void @g_free(ptr noundef nonnull %0)
  br label %13

13:                                               ; preds = %1, %3
  ret void
}